; ModuleID = '56/2020.c'
source_filename = "56/2020.c"
target datalayout = "e-m:e-p270:32:32-p271:32:32-p272:64:64-i64:64-f80:128-n8:16:32:64-S128"
target triple = "x86_64-pc-linux-gnu"

@.str = private unnamed_addr constant [3 x i8] c"%d\00", align 1
@.str.1 = private unnamed_addr constant [11 x i8] c"%d%d%d%d%d\00", align 1
@.str.2 = private unnamed_addr constant [9 x i8] c"%d%d%d%d\00", align 1
@.str.3 = private unnamed_addr constant [7 x i8] c"%d%d%d\00", align 1
@.str.4 = private unnamed_addr constant [5 x i8] c"%d%d\00", align 1

; Function Attrs: noinline nounwind uwtable
define dso_local i32 @main() #0 {
  %1 = alloca i32, align 4
  %2 = alloca i32, align 4
  %3 = alloca i32, align 4
  %4 = alloca i32, align 4
  %5 = alloca i32, align 4
  %6 = alloca i32, align 4
  %7 = alloca i32, align 4
  store i32 0, i32* %1, align 4
  %8 = call i32 (i8*, ...) @__isoc99_scanf(i8* getelementptr inbounds ([3 x i8], [3 x i8]* @.str, i64 0, i64 0), i32* %2)
  store i32 0, i32* %3, align 4
  store i32 0, i32* %4, align 4
  store i32 0, i32* %5, align 4
  store i32 0, i32* %6, align 4
  store i32 0, i32* %7, align 4
  %9 = load i32, i32* %2, align 4
  %10 = icmp slt i32 %9, 10
  br i1 %10, label %11, label %17

11:                                               ; preds = %0
  %12 = load i32, i32* %2, align 4
  %13 = icmp sge i32 %12, 0
  br i1 %13, label %14, label %17

14:                                               ; preds = %11
  %15 = load i32, i32* %7, align 4
  %16 = call i32 (i8*, ...) @printf(i8* getelementptr inbounds ([3 x i8], [3 x i8]* @.str, i64 0, i64 0), i32 %15)
  br label %17

17:                                               ; preds = %14, %11, %0
  %18 = load i32, i32* %2, align 4
  %19 = icmp slt i32 %18, 100000
  br i1 %19, label %20, label %30

20:                                               ; preds = %17
  %21 = load i32, i32* %2, align 4
  %22 = icmp sge i32 %21, 10000
  br i1 %22, label %23, label %30

23:                                               ; preds = %20
  %24 = load i32, i32* %2, align 4
  %25 = sdiv i32 %24, 10000
  store i32 %25, i32* %3, align 4
  %26 = load i32, i32* %2, align 4
  %27 = load i32, i32* %3, align 4
  %28 = mul nsw i32 %27, 10000
  %29 = sub nsw i32 %26, %28
  store i32 %29, i32* %2, align 4
  br label %30

30:                                               ; preds = %23, %20, %17
  %31 = load i32, i32* %2, align 4
  %32 = icmp slt i32 %31, 10000
  br i1 %32, label %33, label %43

33:                                               ; preds = %30
  %34 = load i32, i32* %2, align 4
  %35 = icmp sge i32 %34, 1000
  br i1 %35, label %36, label %43

36:                                               ; preds = %33
  %37 = load i32, i32* %2, align 4
  %38 = sdiv i32 %37, 1000
  store i32 %38, i32* %4, align 4
  %39 = load i32, i32* %2, align 4
  %40 = load i32, i32* %4, align 4
  %41 = mul nsw i32 %40, 1000
  %42 = sub nsw i32 %39, %41
  store i32 %42, i32* %2, align 4
  br label %43

43:                                               ; preds = %36, %33, %30
  %44 = load i32, i32* %2, align 4
  %45 = icmp slt i32 %44, 1000
  br i1 %45, label %46, label %56

46:                                               ; preds = %43
  %47 = load i32, i32* %2, align 4
  %48 = icmp sge i32 %47, 100
  br i1 %48, label %49, label %56

49:                                               ; preds = %46
  %50 = load i32, i32* %2, align 4
  %51 = sdiv i32 %50, 100
  store i32 %51, i32* %5, align 4
  %52 = load i32, i32* %2, align 4
  %53 = load i32, i32* %5, align 4
  %54 = mul nsw i32 %53, 100
  %55 = sub nsw i32 %52, %54
  store i32 %55, i32* %2, align 4
  br label %56

56:                                               ; preds = %49, %46, %43
  %57 = load i32, i32* %2, align 4
  %58 = icmp slt i32 %57, 100
  br i1 %58, label %59, label %69

59:                                               ; preds = %56
  %60 = load i32, i32* %2, align 4
  %61 = icmp sge i32 %60, 10
  br i1 %61, label %62, label %69

62:                                               ; preds = %59
  %63 = load i32, i32* %2, align 4
  %64 = sdiv i32 %63, 10
  store i32 %64, i32* %6, align 4
  %65 = load i32, i32* %2, align 4
  %66 = load i32, i32* %6, align 4
  %67 = mul nsw i32 %66, 10
  %68 = sub nsw i32 %65, %67
  store i32 %68, i32* %2, align 4
  br label %69

69:                                               ; preds = %62, %59, %56
  %70 = load i32, i32* %2, align 4
  store i32 %70, i32* %7, align 4
  %71 = load i32, i32* %3, align 4
  %72 = icmp ne i32 %71, 0
  br i1 %72, label %73, label %80

73:                                               ; preds = %69
  %74 = load i32, i32* %7, align 4
  %75 = load i32, i32* %6, align 4
  %76 = load i32, i32* %5, align 4
  %77 = load i32, i32* %4, align 4
  %78 = load i32, i32* %3, align 4
  %79 = call i32 (i8*, ...) @printf(i8* getelementptr inbounds ([11 x i8], [11 x i8]* @.str.1, i64 0, i64 0), i32 %74, i32 %75, i32 %76, i32 %77, i32 %78)
  br label %107

80:                                               ; preds = %69
  %81 = load i32, i32* %4, align 4
  %82 = icmp ne i32 %81, 0
  br i1 %82, label %83, label %89

83:                                               ; preds = %80
  %84 = load i32, i32* %7, align 4
  %85 = load i32, i32* %6, align 4
  %86 = load i32, i32* %5, align 4
  %87 = load i32, i32* %4, align 4
  %88 = call i32 (i8*, ...) @printf(i8* getelementptr inbounds ([9 x i8], [9 x i8]* @.str.2, i64 0, i64 0), i32 %84, i32 %85, i32 %86, i32 %87)
  br label %106

89:                                               ; preds = %80
  %90 = load i32, i32* %5, align 4
  %91 = icmp ne i32 %90, 0
  br i1 %91, label %92, label %97

92:                                               ; preds = %89
  %93 = load i32, i32* %7, align 4
  %94 = load i32, i32* %6, align 4
  %95 = load i32, i32* %5, align 4
  %96 = call i32 (i8*, ...) @printf(i8* getelementptr inbounds ([7 x i8], [7 x i8]* @.str.3, i64 0, i64 0), i32 %93, i32 %94, i32 %95)
  br label %105

97:                                               ; preds = %89
  %98 = load i32, i32* %6, align 4
  %99 = icmp ne i32 %98, 0
  br i1 %99, label %100, label %104

100:                                              ; preds = %97
  %101 = load i32, i32* %7, align 4
  %102 = load i32, i32* %6, align 4
  %103 = call i32 (i8*, ...) @printf(i8* getelementptr inbounds ([5 x i8], [5 x i8]* @.str.4, i64 0, i64 0), i32 %101, i32 %102)
  br label %104

104:                                              ; preds = %100, %97
  br label %105

105:                                              ; preds = %104, %92
  br label %106

106:                                              ; preds = %105, %83
  br label %107

107:                                              ; preds = %106, %73
  %108 = load i32, i32* %1, align 4
  ret i32 %108
}

declare dso_local i32 @__isoc99_scanf(i8*, ...) #1

declare dso_local i32 @printf(i8*, ...) #1


!llvm.module.flags = !{!0}
!llvm.ident = !{!1}

!0 = !{i32 1, !"wchar_size", i32 4}
!1 = !{!"clang version 10.0.0-4ubuntu1 "}
